target datalayout = "e-m:e-p270:32:32-p271:32:32-p272:64:64-i64:64-i128:128-f80:128-n8:16:32:64-S128"
target triple = "x86_64-pc-linux-gnu"

%struct.CORD_ec_struct = type { ptr, ptr, [129 x i8] }

@stderr = external global ptr, align 8
@.str = private unnamed_addr constant [4 x i8] c"%s\0A\00", align 1
@.str.1 = private unnamed_addr constant [14 x i8] c"Out of memory\00", align 1

; Function Attrs: nounwind uwtable
define ptr @CORD_chars(i8 noundef signext %0, i64 noundef %1) #0 {
  %3 = alloca i8, align 1
  %4 = alloca i64, align 8
  store i8 %0, ptr %3, align 1, !tbaa !8
  store i64 %1, ptr %4, align 8, !tbaa !11
  %5 = load i8, ptr %3, align 1, !tbaa !8
  %6 = zext i8 %5 to i64
  %7 = inttoptr i64 %6 to ptr
  %8 = load i64, ptr %4, align 8, !tbaa !11
  %9 = call ptr @CORD_from_fn(ptr noundef @CORD_nul_func, ptr noundef %7, i64 noundef %8)
  ret ptr %9
}

; Function Attrs: nounwind uwtable
define void @CORD_ec_flush_buf(ptr noundef %0) #0 {
  %2 = alloca ptr, align 8
  %3 = alloca i64, align 8
  %4 = alloca ptr, align 8
  %5 = alloca i32, align 4
  store ptr %0, ptr %2, align 8, !tbaa !33
  call void @llvm.lifetime.start.p0(i64 8, ptr %3) #9
  %6 = load ptr, ptr %2, align 8, !tbaa !33
  %7 = getelementptr inbounds %struct.CORD_ec_struct, ptr %6, i64 0
  %8 = getelementptr inbounds nuw %struct.CORD_ec_struct, ptr %7, i32 0, i32 1
  %9 = load ptr, ptr %8, align 8, !tbaa !35
  %10 = load ptr, ptr %2, align 8, !tbaa !33
  %11 = getelementptr inbounds %struct.CORD_ec_struct, ptr %10, i64 0
  %12 = getelementptr inbounds nuw %struct.CORD_ec_struct, ptr %11, i32 0, i32 2
  %13 = getelementptr inbounds [129 x i8], ptr %12, i64 0, i64 0
  %14 = ptrtoint ptr %9 to i64
  %15 = ptrtoint ptr %13 to i64
  %16 = sub i64 %14, %15
  store i64 %16, ptr %3, align 8, !tbaa !11
  call void @llvm.lifetime.start.p0(i64 8, ptr %4) #9
  %17 = load i64, ptr %3, align 8, !tbaa !11
  %18 = icmp eq i64 %17, 0
  br i1 %18, label %19, label %20

19:                                               ; preds = %1
  store i32 1, ptr %5, align 4
  br label %56

20:                                               ; preds = %1
  %21 = load i64, ptr %3, align 8, !tbaa !11
  %22 = add i64 %21, 1
  %23 = call noalias ptr @GC_malloc_atomic(i64 noundef %22) #10
  store ptr %23, ptr %4, align 8, !tbaa !3
  %24 = load ptr, ptr %4, align 8, !tbaa !3
  %25 = icmp eq ptr null, %24
  br i1 %25, label %26, label %29

26:                                               ; preds = %20
  call void @CORD__call_oom_fn()
  %27 = load ptr, ptr @stderr, align 8, !tbaa !9
  %28 = call i32 (ptr, ptr, ...) @fprintf(ptr noundef %27, ptr noundef @.str, ptr noundef @.str.1) #9
  call void @abort() #11
  unreachable

29:                                               ; preds = %20
  %30 = load ptr, ptr %4, align 8, !tbaa !3
  %31 = load ptr, ptr %2, align 8, !tbaa !33
  %32 = getelementptr inbounds %struct.CORD_ec_struct, ptr %31, i64 0
  %33 = getelementptr inbounds nuw %struct.CORD_ec_struct, ptr %32, i32 0, i32 2
  %34 = getelementptr inbounds [129 x i8], ptr %33, i64 0, i64 0
  %35 = load i64, ptr %3, align 8, !tbaa !11
  call void @llvm.memcpy.p0.p0.i64(ptr align 1 %30, ptr align 8 %34, i64 %35, i1 false)
  %36 = load ptr, ptr %4, align 8, !tbaa !3
  %37 = load i64, ptr %3, align 8, !tbaa !11
  %38 = getelementptr inbounds nuw i8, ptr %36, i64 %37
  store i8 0, ptr %38, align 1, !tbaa !8
  %39 = load ptr, ptr %2, align 8, !tbaa !33
  %40 = getelementptr inbounds %struct.CORD_ec_struct, ptr %39, i64 0
  %41 = getelementptr inbounds nuw %struct.CORD_ec_struct, ptr %40, i32 0, i32 0
  %42 = load ptr, ptr %41, align 8, !tbaa !37
  %43 = load ptr, ptr %4, align 8, !tbaa !3
  %44 = load i64, ptr %3, align 8, !tbaa !11
  %45 = call ptr @CORD_cat_char_star(ptr noundef %42, ptr noundef %43, i64 noundef %44)
  %46 = load ptr, ptr %2, align 8, !tbaa !33
  %47 = getelementptr inbounds %struct.CORD_ec_struct, ptr %46, i64 0
  %48 = getelementptr inbounds nuw %struct.CORD_ec_struct, ptr %47, i32 0, i32 0
  store ptr %45, ptr %48, align 8, !tbaa !37
  %49 = load ptr, ptr %2, align 8, !tbaa !33
  %50 = getelementptr inbounds %struct.CORD_ec_struct, ptr %49, i64 0
  %51 = getelementptr inbounds nuw %struct.CORD_ec_struct, ptr %50, i32 0, i32 2
  %52 = getelementptr inbounds [129 x i8], ptr %51, i64 0, i64 0
  %53 = load ptr, ptr %2, align 8, !tbaa !33
  %54 = getelementptr inbounds %struct.CORD_ec_struct, ptr %53, i64 0
  %55 = getelementptr inbounds nuw %struct.CORD_ec_struct, ptr %54, i32 0, i32 1
  store ptr %52, ptr %55, align 8, !tbaa !35
  store i32 0, ptr %5, align 4
  br label %56

56:                                               ; preds = %29, %19
  call void @llvm.lifetime.end.p0(i64 8, ptr %4) #9
  call void @llvm.lifetime.end.p0(i64 8, ptr %3) #9
  %57 = load i32, ptr %5, align 4
  switch i32 %57, label %59 [
    i32 0, label %58
    i32 1, label %58
  ]

58:                                               ; preds = %56, %56
  ret void

59:                                               ; preds = %56
  unreachable
}

; Function Attrs: nounwind uwtable
define ptr @CORD_from_file_eager(ptr noundef %0) #0 {
  %2 = alloca ptr, align 8
  %3 = alloca [1 x %struct.CORD_ec_struct], align 16
  %4 = alloca i32, align 4
  %5 = alloca i64, align 8
  %6 = alloca i32, align 4
  store ptr %0, ptr %2, align 8, !tbaa !9
  call void @llvm.lifetime.start.p0(i64 152, ptr %3) #9
  %7 = getelementptr inbounds [1 x %struct.CORD_ec_struct], ptr %3, i64 0, i64 0
  %8 = getelementptr inbounds nuw %struct.CORD_ec_struct, ptr %7, i32 0, i32 0
  store ptr null, ptr %8, align 16, !tbaa !37
  %9 = getelementptr inbounds [1 x %struct.CORD_ec_struct], ptr %3, i64 0, i64 0
  %10 = getelementptr inbounds nuw %struct.CORD_ec_struct, ptr %9, i32 0, i32 2
  %11 = getelementptr inbounds [129 x i8], ptr %10, i64 0, i64 0
  %12 = getelementptr inbounds [1 x %struct.CORD_ec_struct], ptr %3, i64 0, i64 0
  %13 = getelementptr inbounds nuw %struct.CORD_ec_struct, ptr %12, i32 0, i32 1
  store ptr %11, ptr %13, align 8, !tbaa !35
  br label %14

14:                                               ; preds = %62, %1
  call void @llvm.lifetime.start.p0(i64 4, ptr %4) #9
  %15 = load ptr, ptr %2, align 8, !tbaa !9
  %16 = call i32 @getc(ptr noundef %15)
  store i32 %16, ptr %4, align 4, !tbaa !13
  %17 = load i32, ptr %4, align 4, !tbaa !13
  %18 = icmp eq i32 %17, 0
  br i1 %18, label %19, label %37

19:                                               ; preds = %14
  call void @llvm.lifetime.start.p0(i64 8, ptr %5) #9
  store i64 1, ptr %5, align 8, !tbaa !11
  %20 = getelementptr inbounds [1 x %struct.CORD_ec_struct], ptr %3, i64 0, i64 0
  call void @CORD_ec_flush_buf(ptr noundef %20)
  br label %21

21:                                               ; preds = %25, %19
  %22 = load ptr, ptr %2, align 8, !tbaa !9
  %23 = call i32 @getc(ptr noundef %22)
  store i32 %23, ptr %4, align 4, !tbaa !13
  %24 = icmp eq i32 %23, 0
  br i1 %24, label %25, label %28

25:                                               ; preds = %21
  %26 = load i64, ptr %5, align 8, !tbaa !11
  %27 = add i64 %26, 1
  store i64 %27, ptr %5, align 8, !tbaa !11
  br label %21, !llvm.loop !38

28:                                               ; preds = %21
  %29 = getelementptr inbounds [1 x %struct.CORD_ec_struct], ptr %3, i64 0, i64 0
  %30 = getelementptr inbounds nuw %struct.CORD_ec_struct, ptr %29, i32 0, i32 0
  %31 = load ptr, ptr %30, align 16, !tbaa !37
  %32 = load i64, ptr %5, align 8, !tbaa !11
  %33 = call ptr @CORD_chars(i8 noundef signext 0, i64 noundef %32)
  %34 = call ptr @CORD_cat(ptr noundef %31, ptr noundef %33)
  %35 = getelementptr inbounds [1 x %struct.CORD_ec_struct], ptr %3, i64 0, i64 0
  %36 = getelementptr inbounds nuw %struct.CORD_ec_struct, ptr %35, i32 0, i32 0
  store ptr %34, ptr %36, align 16, !tbaa !37
  call void @llvm.lifetime.end.p0(i64 8, ptr %5) #9
  br label %37

37:                                               ; preds = %28, %14
  %38 = load i32, ptr %4, align 4, !tbaa !13
  %39 = icmp eq i32 %38, -1
  br i1 %39, label %40, label %41

40:                                               ; preds = %37
  store i32 2, ptr %6, align 4
  br label %60

41:                                               ; preds = %37
  %42 = getelementptr inbounds [1 x %struct.CORD_ec_struct], ptr %3, i64 0, i64 0
  %43 = getelementptr inbounds nuw %struct.CORD_ec_struct, ptr %42, i32 0, i32 1
  %44 = load ptr, ptr %43, align 8, !tbaa !35
  %45 = getelementptr inbounds [1 x %struct.CORD_ec_struct], ptr %3, i64 0, i64 0
  %46 = getelementptr inbounds nuw %struct.CORD_ec_struct, ptr %45, i32 0, i32 2
  %47 = getelementptr inbounds [129 x i8], ptr %46, i64 0, i64 0
  %48 = getelementptr inbounds i8, ptr %47, i64 128
  %49 = icmp eq ptr %44, %48
  br i1 %49, label %50, label %52

50:                                               ; preds = %41
  %51 = getelementptr inbounds [1 x %struct.CORD_ec_struct], ptr %3, i64 0, i64 0
  call void @CORD_ec_flush_buf(ptr noundef %51)
  br label %53

52:                                               ; preds = %41
  br label %53

53:                                               ; preds = %52, %50
  %54 = load i32, ptr %4, align 4, !tbaa !13
  %55 = trunc i32 %54 to i8
  %56 = getelementptr inbounds [1 x %struct.CORD_ec_struct], ptr %3, i64 0, i64 0
  %57 = getelementptr inbounds nuw %struct.CORD_ec_struct, ptr %56, i32 0, i32 1
  %58 = load ptr, ptr %57, align 8, !tbaa !35
  %59 = getelementptr inbounds nuw i8, ptr %58, i32 1
  store ptr %59, ptr %57, align 8, !tbaa !35
  store i8 %55, ptr %58, align 1, !tbaa !8
  store i32 0, ptr %6, align 4
  br label %60

60:                                               ; preds = %53, %40
  call void @llvm.lifetime.end.p0(i64 4, ptr %4) #9
  %61 = load i32, ptr %6, align 4
  switch i32 %61, label %71 [
    i32 0, label %62
    i32 2, label %63
  ]

62:                                               ; preds = %60
  br label %14

63:                                               ; preds = %60
  %64 = load ptr, ptr %2, align 8, !tbaa !9
  %65 = call i32 @fclose(ptr noundef %64)
  %66 = getelementptr inbounds [1 x %struct.CORD_ec_struct], ptr %3, i64 0, i64 0
  call void @CORD_ec_flush_buf(ptr noundef %66)
  %67 = getelementptr inbounds [1 x %struct.CORD_ec_struct], ptr %3, i64 0, i64 0
  %68 = getelementptr inbounds nuw %struct.CORD_ec_struct, ptr %67, i32 0, i32 0
  %69 = load ptr, ptr %68, align 16, !tbaa !37
  %70 = call ptr @CORD_balance(ptr noundef %69)
  store i32 1, ptr %6, align 4
  call void @llvm.lifetime.end.p0(i64 152, ptr %3) #9
  ret ptr %70

71:                                               ; preds = %60
  unreachable
}