; Function Attrs: nounwind uwtable
define ptr @CORD_from_file_eager(ptr noundef captures(none) %0) local_unnamed_addr #0 {
  %2 = alloca [1 x %struct.CORD_ec_struct], align 16
  call void @llvm.lifetime.start.p0(i64 152, ptr nonnull %2) #16
  store ptr null, ptr %2, align 16, !tbaa !32
  %3 = getelementptr inbounds nuw i8, ptr %2, i64 16
  %4 = getelementptr inbounds nuw i8, ptr %2, i64 8
  store ptr %3, ptr %4, align 8, !tbaa !30
  %5 = ptrtoint ptr %3 to i64
  %6 = getelementptr inbounds nuw i8, ptr %2, i64 144
  br label %7

7:                                                ; preds = %48, %1
  %8 = call i32 @getc(ptr noundef %0)
  %9 = icmp eq i32 %8, 0
  br i1 %9, label %10, label %33

10:                                               ; preds = %7
  %11 = load ptr, ptr %4, align 8, !tbaa !30
  %12 = ptrtoint ptr %11 to i64
  %13 = sub i64 %12, %5
  %14 = icmp eq ptr %11, %3
  br i1 %14, label %CORD_ec_flush_buf.exit.preheader, label %15

15:                                               ; preds = %10
  %16 = add i64 %13, 1
  %17 = call noalias ptr @GC_malloc_atomic(i64 noundef %16) #17
  %18 = icmp eq ptr %17, null
  br i1 %18, label %19, label %22

19:                                               ; preds = %15
  call void @CORD__call_oom_fn() #16
  %20 = load ptr, ptr @stderr, align 8, !tbaa !3
  %21 = call i32 (ptr, ptr, ...) @fprintf(ptr noundef %20, ptr noundef nonnull @.str, ptr noundef nonnull @.str.1) #18
  call void @abort() #19
  unreachable

22:                                               ; preds = %15
  call void @llvm.memcpy.p0.p0.i64(ptr nonnull align 1 %17, ptr nonnull align 16 %3, i64 %13, i1 false)
  %23 = getelementptr inbounds nuw i8, ptr %17, i64 %13
  store i8 0, ptr %23, align 1, !tbaa !8
  %24 = load ptr, ptr %2, align 16, !tbaa !32
  %25 = call ptr @CORD_cat_char_star(ptr noundef %24, ptr noundef nonnull %17, i64 noundef %13) #16
  store ptr %25, ptr %2, align 16, !tbaa !32
  store ptr %3, ptr %4, align 8, !tbaa !30
  br label %CORD_ec_flush_buf.exit.preheader

CORD_ec_flush_buf.exit.preheader:                 ; preds = %10, %22
  br label %CORD_ec_flush_buf.exit

CORD_ec_flush_buf.exit:                           ; preds = %CORD_ec_flush_buf.exit.preheader, %CORD_ec_flush_buf.exit
  %.08 = phi i64 [ %28, %CORD_ec_flush_buf.exit ], [ 1, %CORD_ec_flush_buf.exit.preheader ]
  %26 = call i32 @getc(ptr noundef %0)
  %27 = icmp eq i32 %26, 0
  %28 = add i64 %.08, 1
  br i1 %27, label %CORD_ec_flush_buf.exit, label %29, !llvm.loop !33

29:                                               ; preds = %CORD_ec_flush_buf.exit
  %30 = load ptr, ptr %2, align 16, !tbaa !32
  %31 = call ptr @CORD_from_fn(ptr noundef nonnull @CORD_nul_func, ptr noundef null, i64 noundef %.08) #16
  %32 = call ptr @CORD_cat(ptr noundef %30, ptr noundef %31) #16
  store ptr %32, ptr %2, align 16, !tbaa !32
  br label %33

33:                                               ; preds = %29, %7
  %.09 = phi i32 [ %26, %29 ], [ %8, %7 ]
  %34 = icmp eq i32 %.09, -1
  br i1 %34, label %52, label %35

35:                                               ; preds = %33
  %36 = load ptr, ptr %4, align 8, !tbaa !30
  %37 = icmp eq ptr %36, %6
  br i1 %37, label %38, label %48

38:                                               ; preds = %35
  %39 = call noalias dereferenceable_or_null(129) ptr @GC_malloc_atomic(i64 noundef 129) #17
  %40 = icmp eq ptr %39, null
  br i1 %40, label %41, label %44

41:                                               ; preds = %38
  call void @CORD__call_oom_fn() #16
  %42 = load ptr, ptr @stderr, align 8, !tbaa !3
  %43 = call i32 (ptr, ptr, ...) @fprintf(ptr noundef %42, ptr noundef nonnull @.str, ptr noundef nonnull @.str.1) #18
  call void @abort() #19
  unreachable

44:                                               ; preds = %38
  call void @llvm.memcpy.p0.p0.i64(ptr noundef nonnull align 1 dereferenceable(128) %39, ptr noundef nonnull align 16 dereferenceable(128) %3, i64 128, i1 false)
  %45 = getelementptr inbounds nuw i8, ptr %39, i64 128
  store i8 0, ptr %45, align 1, !tbaa !8
  %46 = load ptr, ptr %2, align 16, !tbaa !32
  %47 = call ptr @CORD_cat_char_star(ptr noundef %46, ptr noundef nonnull %39, i64 noundef 128) #16
  store ptr %47, ptr %2, align 16, !tbaa !32
  br label %48

48:                                               ; preds = %35, %44
  %49 = phi ptr [ %36, %35 ], [ %3, %44 ]
  %50 = trunc i32 %.09 to i8
  %51 = getelementptr inbounds nuw i8, ptr %49, i64 1
  store ptr %51, ptr %4, align 8, !tbaa !30
  store i8 %50, ptr %49, align 1, !tbaa !8
  br label %7

52:                                               ; preds = %33
  %53 = call i32 @fclose(ptr noundef %0)
  %54 = load ptr, ptr %4, align 8, !tbaa !30
  %55 = ptrtoint ptr %54 to i64
  %56 = sub i64 %55, %5
  %57 = icmp eq ptr %54, %3
  br i1 %57, label %.CORD_ec_flush_buf.exit13_crit_edge, label %58

.CORD_ec_flush_buf.exit13_crit_edge:              ; preds = %52
  %.pre = load ptr, ptr %2, align 16, !tbaa !32
  br label %CORD_ec_flush_buf.exit13

58:                                               ; preds = %52
  %59 = add i64 %56, 1
  %60 = call noalias ptr @GC_malloc_atomic(i64 noundef %59) #17
  %61 = icmp eq ptr %60, null
  br i1 %61, label %62, label %65

62:                                               ; preds = %58
  call void @CORD__call_oom_fn() #16
  %63 = load ptr, ptr @stderr, align 8, !tbaa !3
  %64 = call i32 (ptr, ptr, ...) @fprintf(ptr noundef %63, ptr noundef nonnull @.str, ptr noundef nonnull @.str.1) #18
  call void @abort() #19
  unreachable

65:                                               ; preds = %58
  call void @llvm.memcpy.p0.p0.i64(ptr nonnull align 1 %60, ptr nonnull align 16 %3, i64 %56, i1 false)
  %66 = getelementptr inbounds nuw i8, ptr %60, i64 %56
  store i8 0, ptr %66, align 1, !tbaa !8
  %67 = load ptr, ptr %2, align 16, !tbaa !32
  %68 = call ptr @CORD_cat_char_star(ptr noundef %67, ptr noundef nonnull %60, i64 noundef %56) #16
  store ptr %68, ptr %2, align 16, !tbaa !32
  store ptr %3, ptr %4, align 8, !tbaa !30
  br label %CORD_ec_flush_buf.exit13

CORD_ec_flush_buf.exit13:                         ; preds = %.CORD_ec_flush_buf.exit13_crit_edge, %65
  %69 = phi ptr [ %.pre, %.CORD_ec_flush_buf.exit13_crit_edge ], [ %68, %65 ]
  %70 = call ptr @CORD_balance(ptr noundef %69) #16
  call void @llvm.lifetime.end.p0(i64 152, ptr nonnull %2) #16
  ret ptr %70
}